Certificate:
    Data:
        Version: 3 (0x2)
        Serial Number: 4 (0x4)
    Signature Algorithm: sha256WithRSAEncryption
        Issuer: C=CH, ST=Bern, O=InfTec GmbH, CN=InfTec Local Test Certificate Authority
        Validity
            Not Before: Jan  3 00:18:26 2015 GMT
            Not After : Jan  3 00:18:26 2016 GMT
        Subject: C=CH, ST=Bern, O=InfTec GmbH, CN=InfTec Test
        Subject Public Key Info:
            Public Key Algorithm: rsaEncryption
                Public-Key: (2048 bit)
                Modulus:
                    00:b7:b2:ec:75:6d:a4:84:a5:9f:c4:1f:07:f6:b5:
                    14:2b:da:ff:71:d5:76:e7:21:5a:83:71:54:2e:ad:
                    91:ae:9a:f1:13:89:d3:70:f1:c1:2b:6f:27:bc:14:
                    cf:5b:35:34:52:36:04:a4:bf:3c:63:20:36:c5:27:
                    15:0a:79:0b:9b:1b:50:7a:6a:93:97:d1:43:56:fa:
                    2a:78:29:82:44:3f:d6:d3:fe:94:db:77:79:95:b9:
                    9c:f2:32:4c:dd:8f:08:82:ad:5e:86:45:30:70:bf:
                    7a:67:55:97:96:c0:1b:51:fa:f2:ba:75:c7:8d:de:
                    fd:69:b5:8c:fb:35:2f:3c:02:02:39:65:f4:f3:78:
                    cc:d1:a9:20:f5:94:23:dd:91:fe:5e:28:2c:f7:9c:
                    7c:5c:87:c8:00:d2:96:0a:8c:02:72:3c:49:e6:c5:
                    c9:35:25:37:ca:d4:ff:32:56:e8:0c:0c:3b:cc:a8:
                    52:04:53:2d:b0:1a:51:c3:b8:82:1e:66:7f:00:f8:
                    ef:22:55:db:1b:52:0e:4b:89:00:5e:0c:28:b9:84:
                    40:a5:4b:3e:e6:27:dd:d2:82:47:c1:f0:b3:89:b7:
                    cd:6b:e8:8f:a8:c8:d5:0d:f4:fd:f6:2a:e8:58:0a:
                    ba:91:16:02:ec:16:25:c2:cc:0a:13:df:2f:f5:cf:
                    a6:05
                Exponent: 65537 (0x10001)
        X509v3 extensions:
            X509v3 Basic Constraints: 
                CA:FALSE
            Netscape Comment: 
                OpenSSL Generated Certificate
            X509v3 Subject Key Identifier: 
                74:AA:6E:E1:8F:D8:80:81:1F:A6:65:CD:FF:00:C1:B8:63:2B:20:3F
            X509v3 Authority Key Identifier: 
                keyid:30:DA:F3:C9:D3:25:98:F3:A4:D8:38:AB:85:5C:5F:0B:68:DC:C1:7C

    Signature Algorithm: sha256WithRSAEncryption
         65:69:bc:cc:1e:c3:48:10:48:a9:5b:e7:f4:0d:85:d5:8a:5c:
         38:42:e4:5d:cc:91:57:46:f3:0f:6e:23:08:90:b1:40:b3:0b:
         63:ee:a5:89:87:59:e4:79:fa:3b:2b:db:e0:73:e3:b3:84:3d:
         91:7e:fa:db:fc:60:9a:b0:9e:8d:4f:00:16:85:cb:36:bf:68:
         48:ac:1b:65:e7:68:ca:55:61:02:48:12:39:61:d6:d8:8f:c1:
         fa:9e:99:99:d6:c4:e9:a6:7d:6c:66:41:bf:67:86:f4:6d:cc:
         4b:74:64:15:dd:9c:92:77:21:fc:f2:6c:57:ff:bf:43:42:16:
         5f:38:82:de:fd:44:cc:67:b7:c3:ee:ba:c6:c2:05:cb:cd:e3:
         68:00:00:61:a6:52:56:48:30:87:c3:d6:9f:3c:81:cb:a7:44:
         8a:92:5b:93:13:ed:9b:83:1c:5a:22:e7:d9:8f:f7:3c:71:19:
         ec:2c:c2:56:ec:0d:e1:1e:8f:af:c6:5f:1e:c9:02:d8:97:ba:
         ca:15:b1:04:8a:a8:4e:b9:b7:57:35:70:12:83:0b:67:ee:af:
         54:f8:23:8a:9a:07:14:b6:08:c7:b7:e3:be:02:ad:63:45:93:
         c3:26:0e:43:8f:20:1f:f3:51:c5:07:fe:a5:1c:01:6b:25:21:
         f4:b5:21:4f
-----BEGIN CERTIFICATE-----
MIIDojCCAoqgAwIBAgIBBDANBgkqhkiG9w0BAQsFADBkMQswCQYDVQQGEwJDSDEN
MAsGA1UECAwEQmVybjEUMBIGA1UECgwLSW5mVGVjIEdtYkgxMDAuBgNVBAMMJ0lu
ZlRlYyBMb2NhbCBUZXN0IENlcnRpZmljYXRlIEF1dGhvcml0eTAeFw0xNTAxMDMw
MDE4MjZaFw0xNjAxMDMwMDE4MjZaMEgxCzAJBgNVBAYTAkNIMQ0wCwYDVQQIDARC
ZXJuMRQwEgYDVQQKDAtJbmZUZWMgR21iSDEUMBIGA1UEAwwLSW5mVGVjIFRlc3Qw
ggEiMA0GCSqGSIb3DQEBAQUAA4IBDwAwggEKAoIBAQC3sux1baSEpZ/EHwf2tRQr
2v9x1XbnIVqDcVQurZGumvETidNw8cErbye8FM9bNTRSNgSkvzxjIDbFJxUKeQub
G1B6apOX0UNW+ip4KYJEP9bT/pTbd3mVuZzyMkzdjwiCrV6GRTBwv3pnVZeWwBtR
+vK6dceN3v1ptYz7NS88AgI5ZfTzeMzRqSD1lCPdkf5eKCz3nHxch8gA0pYKjAJy
PEnmxck1JTfK1P8yVugMDDvMqFIEUy2wGlHDuIIeZn8A+O8iVdsbUg5LiQBeDCi5
hEClSz7mJ93SgkfB8LOJt81r6I+oyNUN9P32KuhYCrqRFgLsFiXCzAoT3y/1z6YF
AgMBAAGjezB5MAkGA1UdEwQCMAAwLAYJYIZIAYb4QgENBB8WHU9wZW5TU0wgR2Vu
ZXJhdGVkIENlcnRpZmljYXRlMB0GA1UdDgQWBBR0qm7hj9iAgR+mZc3/AMG4Yysg
PzAfBgNVHSMEGDAWgBQw2vPJ0yWY86TYOKuFXF8LaNzBfDANBgkqhkiG9w0BAQsF
AAOCAQEAZWm8zB7DSBBIqVvn9A2F1YpcOELkXcyRV0bzD24jCJCxQLMLY+6liYdZ
5Hn6Oyvb4HPjs4Q9kX762/xgmrCejU8AFoXLNr9oSKwbZedoylVhAkgSOWHW2I/B
+p6ZmdbE6aZ9bGZBv2eG9G3MS3RkFd2cknch/PJsV/+/Q0IWXziC3v1EzGe3w+66
xsIFy83jaAAAYaZSVkgwh8PWnzyBy6dEipJbkxPtm4McWiLn2Y/3PHEZ7CzCVuwN
4R6Pr8ZfHskC2Je6yhWxBIqoTrm3VzVwEoMLZ+6vVPgjipoHFLYIx7fjvgKtY0WT
wyYOQ48gH/NRxQf+pRwBayUh9LUhTw==
-----END CERTIFICATE-----
