Certificate:
    Data:
        Version: 3 (0x2)
        Serial Number: 5 (0x5)
    Signature Algorithm: sha256WithRSAEncryption
        Issuer: C=CH, ST=Bern, O=InfTec GmbH, CN=InfTec Local Test Certificate Authority
        Validity
            Not Before: Jan  3 00:21:24 2015 GMT
            Not After : Jan  3 00:21:24 2016 GMT
        Subject: C=CH, ST=Bern, O=InfTec GmbH, CN=InfTec Test
        Subject Public Key Info:
            Public Key Algorithm: rsaEncryption
                Public-Key: (2048 bit)
                Modulus:
                    00:b7:b2:ec:75:6d:a4:84:a5:9f:c4:1f:07:f6:b5:
                    14:2b:da:ff:71:d5:76:e7:21:5a:83:71:54:2e:ad:
                    91:ae:9a:f1:13:89:d3:70:f1:c1:2b:6f:27:bc:14:
                    cf:5b:35:34:52:36:04:a4:bf:3c:63:20:36:c5:27:
                    15:0a:79:0b:9b:1b:50:7a:6a:93:97:d1:43:56:fa:
                    2a:78:29:82:44:3f:d6:d3:fe:94:db:77:79:95:b9:
                    9c:f2:32:4c:dd:8f:08:82:ad:5e:86:45:30:70:bf:
                    7a:67:55:97:96:c0:1b:51:fa:f2:ba:75:c7:8d:de:
                    fd:69:b5:8c:fb:35:2f:3c:02:02:39:65:f4:f3:78:
                    cc:d1:a9:20:f5:94:23:dd:91:fe:5e:28:2c:f7:9c:
                    7c:5c:87:c8:00:d2:96:0a:8c:02:72:3c:49:e6:c5:
                    c9:35:25:37:ca:d4:ff:32:56:e8:0c:0c:3b:cc:a8:
                    52:04:53:2d:b0:1a:51:c3:b8:82:1e:66:7f:00:f8:
                    ef:22:55:db:1b:52:0e:4b:89:00:5e:0c:28:b9:84:
                    40:a5:4b:3e:e6:27:dd:d2:82:47:c1:f0:b3:89:b7:
                    cd:6b:e8:8f:a8:c8:d5:0d:f4:fd:f6:2a:e8:58:0a:
                    ba:91:16:02:ec:16:25:c2:cc:0a:13:df:2f:f5:cf:
                    a6:05
                Exponent: 65537 (0x10001)
        X509v3 extensions:
            X509v3 Basic Constraints: 
                CA:FALSE
            Netscape Comment: 
                OpenSSL Generated Certificate
            X509v3 Subject Key Identifier: 
                74:AA:6E:E1:8F:D8:80:81:1F:A6:65:CD:FF:00:C1:B8:63:2B:20:3F
            X509v3 Authority Key Identifier: 
                keyid:30:DA:F3:C9:D3:25:98:F3:A4:D8:38:AB:85:5C:5F:0B:68:DC:C1:7C

            X509v3 Key Usage: 
                Digital Signature, Non Repudiation, Key Encipherment
            X509v3 Subject Alternative Name: 
                DNS:puppet.example.com, DNS:www.example.com, DNS:nagios.example.com, IP Address:172.16.32.10
    Signature Algorithm: sha256WithRSAEncryption
         96:76:9b:57:bb:c6:af:45:65:79:b3:7a:e9:ab:4d:ef:e5:ed:
         49:1e:c5:4b:ed:2d:68:63:01:34:4e:ed:45:ec:aa:c9:73:73:
         14:70:bb:82:d4:29:79:5d:0a:51:1a:50:ca:e3:ca:0d:68:7d:
         33:71:1c:49:ff:a3:f6:90:dc:79:bb:3b:8b:25:78:67:f5:2a:
         ef:02:f3:de:9e:29:de:ae:44:83:09:34:93:50:d4:90:2b:1a:
         cc:13:90:b3:5b:dd:dc:34:aa:4d:53:7f:64:18:e6:55:2e:b0:
         78:98:1a:77:c7:8c:3b:32:d0:49:1f:43:26:da:da:6b:68:d3:
         43:50:50:71:91:1b:e0:5a:50:5d:dd:e8:88:9b:a5:9e:ed:43:
         40:2e:78:61:ab:ac:a5:f0:0a:de:36:61:b8:9e:14:48:22:7a:
         68:4e:22:d9:b1:4d:b1:86:1d:3c:a5:4e:0a:32:b1:0b:6e:76:
         d2:ca:f3:7f:22:a0:84:28:dd:ab:83:56:69:79:6b:74:56:d9:
         e4:2a:cc:d6:5b:c6:73:a5:f4:84:45:2a:15:96:ca:63:18:28:
         f0:8f:bf:3c:cd:5c:3a:7b:49:a2:09:bd:4e:3e:73:06:70:f8:
         78:31:2c:a1:11:3d:0d:ae:df:59:c0:9a:d7:4e:83:32:3b:42:
         b8:af:8d:dc
-----BEGIN CERTIFICATE-----
MIID+zCCAuOgAwIBAgIBBTANBgkqhkiG9w0BAQsFADBkMQswCQYDVQQGEwJDSDEN
MAsGA1UECAwEQmVybjEUMBIGA1UECgwLSW5mVGVjIEdtYkgxMDAuBgNVBAMMJ0lu
ZlRlYyBMb2NhbCBUZXN0IENlcnRpZmljYXRlIEF1dGhvcml0eTAeFw0xNTAxMDMw
MDIxMjRaFw0xNjAxMDMwMDIxMjRaMEgxCzAJBgNVBAYTAkNIMQ0wCwYDVQQIDARC
ZXJuMRQwEgYDVQQKDAtJbmZUZWMgR21iSDEUMBIGA1UEAwwLSW5mVGVjIFRlc3Qw
ggEiMA0GCSqGSIb3DQEBAQUAA4IBDwAwggEKAoIBAQC3sux1baSEpZ/EHwf2tRQr
2v9x1XbnIVqDcVQurZGumvETidNw8cErbye8FM9bNTRSNgSkvzxjIDbFJxUKeQub
G1B6apOX0UNW+ip4KYJEP9bT/pTbd3mVuZzyMkzdjwiCrV6GRTBwv3pnVZeWwBtR
+vK6dceN3v1ptYz7NS88AgI5ZfTzeMzRqSD1lCPdkf5eKCz3nHxch8gA0pYKjAJy
PEnmxck1JTfK1P8yVugMDDvMqFIEUy2wGlHDuIIeZn8A+O8iVdsbUg5LiQBeDCi5
hEClSz7mJ93SgkfB8LOJt81r6I+oyNUN9P32KuhYCrqRFgLsFiXCzAoT3y/1z6YF
AgMBAAGjgdMwgdAwCQYDVR0TBAIwADAsBglghkgBhvhCAQ0EHxYdT3BlblNTTCBH
ZW5lcmF0ZWQgQ2VydGlmaWNhdGUwHQYDVR0OBBYEFHSqbuGP2ICBH6Zlzf8Awbhj
KyA/MB8GA1UdIwQYMBaAFDDa88nTJZjzpNg4q4VcXwto3MF8MAsGA1UdDwQEAwIF
4DBIBgNVHREEQTA/ghJwdXBwZXQuZXhhbXBsZS5jb22CD3d3dy5leGFtcGxlLmNv
bYISbmFnaW9zLmV4YW1wbGUuY29thwSsECAKMA0GCSqGSIb3DQEBCwUAA4IBAQCW
dptXu8avRWV5s3rpq03v5e1JHsVL7S1oYwE0Tu1F7KrJc3MUcLuC1Cl5XQpRGlDK
48oNaH0zcRxJ/6P2kNx5uzuLJXhn9SrvAvPeninerkSDCTSTUNSQKxrME5CzW93c
NKpNU39kGOZVLrB4mBp3x4w7MtBJH0Mm2tpraNNDUFBxkRvgWlBd3eiIm6We7UNA
Lnhhq6yl8AreNmG4nhRIInpoTiLZsU2xhh08pU4KMrELbnbSyvN/IqCEKN2rg1Zp
eWt0VtnkKszWW8ZzpfSERSoVlspjGCjwj788zVw6e0miCb1OPnMGcPh4MSyhET0N
rt9ZwJrXToMyO0K4r43c
-----END CERTIFICATE-----
