Certificate:
    Data:
        Version: 3 (0x2)
        Serial Number: 10612720928120789982 (0x9347f5749cfe5bde)
    Signature Algorithm: sha256WithRSAEncryption
        Issuer: C=CH, ST=Some-State, O=Internet Widgits Pty Ltd, CN=InfTec Test Certificate Authority
        Validity
            Not Before: Dec 29 19:24:49 2014 GMT
            Not After : Dec 29 19:24:49 2015 GMT
        Subject: C=CH, ST=Some-State, O=Internet Widgits Pty Ltd, CN=www.example.com
        Subject Public Key Info:
            Public Key Algorithm: rsaEncryption
                Public-Key: (2048 bit)
                Modulus:
                    00:bb:7c:17:24:a1:21:bc:9c:9f:09:a7:43:37:26:
                    00:88:69:32:81:f6:43:95:cd:5f:d7:95:30:b3:f8:
                    8d:5f:da:19:b1:8f:11:aa:aa:7f:b2:6b:4a:2e:6a:
                    9f:c6:55:b6:19:4f:1e:86:c2:81:ce:3c:09:28:d3:
                    e0:8e:db:b0:b4:70:d7:55:26:21:2b:ae:c1:9c:9d:
                    6c:48:32:ac:0f:58:f4:c6:77:c6:45:d8:a6:82:49:
                    81:8b:49:51:0c:0f:87:57:15:c8:88:34:71:40:23:
                    ec:0c:18:4a:25:c6:2b:42:82:05:c3:a6:0b:2a:f9:
                    53:ad:98:c6:44:10:89:92:1d:c7:12:06:ab:46:1d:
                    e3:02:17:ad:d0:96:3d:da:0b:66:3f:ab:d7:bf:7a:
                    6e:90:4d:25:32:33:32:f9:e9:53:b5:02:f1:6a:87:
                    03:1f:fd:6d:f1:6b:da:cf:5f:25:d5:52:26:ce:8f:
                    b3:20:82:89:08:00:5d:c4:97:e6:01:4b:40:b9:96:
                    71:67:86:e9:d6:42:ce:1d:b5:8e:f6:44:04:7f:01:
                    36:86:ff:11:e9:70:5a:98:51:81:aa:af:29:42:95:
                    90:fa:bc:cc:0d:aa:89:94:a4:5e:90:27:49:94:2b:
                    13:95:35:8f:f9:ca:d8:f1:ca:ee:94:72:76:55:f8:
                    98:ef
                Exponent: 65537 (0x10001)
        X509v3 extensions:
            X509v3 Basic Constraints: 
                CA:FALSE
            Netscape Comment: 
                OpenSSL Generated Certificate
            X509v3 Subject Key Identifier: 
                4A:F3:91:F6:EB:1A:AE:EB:DC:1F:45:50:D6:A5:6C:0D:E7:8A:D6:67
            X509v3 Authority Key Identifier: 
                keyid:A4:31:5A:21:43:84:07:E1:7B:3B:65:BE:81:0F:C6:DC:2F:B6:69:D1

    Signature Algorithm: sha256WithRSAEncryption
         92:7a:27:6d:12:f9:56:cf:00:21:b5:4b:27:f0:ed:1d:e4:9e:
         41:a7:b1:03:08:cd:84:21:4e:ba:c3:8c:b4:a8:40:07:27:43:
         b9:f3:30:d8:41:4a:d1:47:b5:96:bb:da:15:79:3c:bf:fe:f6:
         71:3b:48:fa:c1:d8:2a:fe:ea:b4:32:e9:d4:2d:5a:45:61:09:
         ce:7a:12:63:50:ee:46:36:20:42:03:c1:60:29:41:2a:44:b8:
         98:e1:71:cd:9e:3e:45:93:5a:47:ab:8d:f6:cd:56:6d:bd:21:
         7a:82:7a:16:42:d7:7a:a0:89:c5:2a:2e:e7:13:c2:d7:be:09:
         28:ed:86:18:71:c7:9e:44:de:18:e7:b1:dd:c9:02:92:de:59:
         40:c7:31:11:77:aa:74:78:df:1a:2e:d0:c6:7e:1a:e1:da:5c:
         4c:54:4b:7e:ab:9b:e2:bc:e8:58:06:00:c5:88:16:5f:53:4f:
         7d:bd:a3:f3:16:f7:c4:52:cc:08:8b:3e:f4:f8:5b:b5:fc:fd:
         08:55:f0:4a:0a:a8:d4:71:75:f8:c4:30:84:b8:06:9f:88:bb:
         eb:5a:a2:d0:15:bc:cd:51:b5:1d:66:3d:2a:4b:b9:cb:f4:44:
         9e:ff:b9:9a:af:04:c0:87:6c:28:d8:a0:c0:eb:f2:aa:55:2d:
         83:6c:2b:8b
-----BEGIN CERTIFICATE-----
MIIDzjCCAragAwIBAgIJAJNH9XSc/lveMA0GCSqGSIb3DQEBCwUAMHExCzAJBgNV
BAYTAkNIMRMwEQYDVQQIDApTb21lLVN0YXRlMSEwHwYDVQQKDBhJbnRlcm5ldCBX
aWRnaXRzIFB0eSBMdGQxKjAoBgNVBAMMIUluZlRlYyBUZXN0IENlcnRpZmljYXRl
IEF1dGhvcml0eTAeFw0xNDEyMjkxOTI0NDlaFw0xNTEyMjkxOTI0NDlaMF8xCzAJ
BgNVBAYTAkNIMRMwEQYDVQQIDApTb21lLVN0YXRlMSEwHwYDVQQKDBhJbnRlcm5l
dCBXaWRnaXRzIFB0eSBMdGQxGDAWBgNVBAMMD3d3dy5leGFtcGxlLmNvbTCCASIw
DQYJKoZIhvcNAQEBBQADggEPADCCAQoCggEBALt8FyShIbycnwmnQzcmAIhpMoH2
Q5XNX9eVMLP4jV/aGbGPEaqqf7JrSi5qn8ZVthlPHobCgc48CSjT4I7bsLRw11Um
ISuuwZydbEgyrA9Y9MZ3xkXYpoJJgYtJUQwPh1cVyIg0cUAj7AwYSiXGK0KCBcOm
Cyr5U62YxkQQiZIdxxIGq0Yd4wIXrdCWPdoLZj+r1796bpBNJTIzMvnpU7UC8WqH
Ax/9bfFr2s9fJdVSJs6PsyCCiQgAXcSX5gFLQLmWcWeG6dZCzh21jvZEBH8BNob/
EelwWphRgaqvKUKVkPq8zA2qiZSkXpAnSZQrE5U1j/nK2PHK7pRydlX4mO8CAwEA
AaN7MHkwCQYDVR0TBAIwADAsBglghkgBhvhCAQ0EHxYdT3BlblNTTCBHZW5lcmF0
ZWQgQ2VydGlmaWNhdGUwHQYDVR0OBBYEFErzkfbrGq7r3B9FUNalbA3nitZnMB8G
A1UdIwQYMBaAFKQxWiFDhAfheztlvoEPxtwvtmnRMA0GCSqGSIb3DQEBCwUAA4IB
AQCSeidtEvlWzwAhtUsn8O0d5J5Bp7EDCM2EIU66w4y0qEAHJ0O58zDYQUrRR7WW
u9oVeTy//vZxO0j6wdgq/uq0MunULVpFYQnOehJjUO5GNiBCA8FgKUEqRLiY4XHN
nj5Fk1pHq432zVZtvSF6gnoWQtd6oInFKi7nE8LXvgko7YYYcceeRN4Y57HdyQKS
3llAxzERd6p0eN8aLtDGfhrh2lxMVEt+q5vivOhYBgDFiBZfU099vaPzFvfEUswI
iz70+Fu1/P0IVfBKCqjUcXX4xDCEuAafiLvrWqLQFbzNUbUdZj0qS7nL9ESe/7ma
rwTAh2wo2KDA6/KqVS2DbCuL
-----END CERTIFICATE-----
