Certificate:
    Data:
        Version: 3 (0x2)
        Serial Number: 10612720928120789981 (0x9347f5749cfe5bdd)
    Signature Algorithm: sha256WithRSAEncryption
        Issuer: C=CH, ST=Some-State, O=Internet Widgits Pty Ltd, CN=InfTec Test Certificate Authority
        Validity
            Not Before: Dec 29 19:10:15 2014 GMT
            Not After : Dec 28 19:10:15 2017 GMT
        Subject: C=CH, ST=Some-State, O=Internet Widgits Pty Ltd, CN=InfTec Test Certificate Authority
        Subject Public Key Info:
            Public Key Algorithm: rsaEncryption
                Public-Key: (2048 bit)
                Modulus:
                    00:e7:d7:78:2f:1e:26:46:e2:b1:53:c0:2e:02:1e:
                    cc:8e:e3:5c:b4:4f:15:f0:8f:8f:a7:b1:8f:a0:87:
                    3e:53:48:2e:08:8f:0c:dc:15:48:58:14:3f:04:e3:
                    9d:3c:aa:14:01:8f:cf:da:5a:b5:f2:a1:4f:05:ea:
                    c5:69:bf:df:55:b6:71:28:7b:69:11:89:a9:d7:d7:
                    58:9c:33:4c:f8:80:34:11:10:3d:83:92:93:79:ba:
                    5b:fa:17:e6:b6:3e:3e:55:3d:75:4b:cc:75:cd:84:
                    3c:84:11:7f:1c:50:be:bd:ba:97:8f:c5:8d:99:fe:
                    c6:4e:e7:c9:bc:ea:e7:74:e7:40:f5:95:76:52:7b:
                    b0:90:2a:7f:cc:3c:74:33:94:8b:a8:89:f3:bf:77:
                    c0:e1:0c:bf:58:f8:ae:be:13:ed:14:43:e7:f7:1c:
                    f5:e9:d4:ec:75:ee:2e:c6:f7:74:3a:96:99:f0:69:
                    93:a7:15:f0:bc:d1:15:a4:06:59:7e:4b:f3:87:6f:
                    6b:f5:39:5a:8a:a7:f4:ba:ae:9a:0a:71:f8:98:a4:
                    89:c5:9c:17:f5:8c:ea:4d:9f:ce:41:c4:99:e5:3b:
                    4b:d9:2c:9a:6c:f4:5e:56:b8:a8:49:c1:ce:8a:03:
                    ea:d1:c2:b3:e8:8f:64:51:a4:fd:a7:9d:94:05:69:
                    ca:d7
                Exponent: 65537 (0x10001)
        X509v3 extensions:
            X509v3 Subject Key Identifier: 
                A4:31:5A:21:43:84:07:E1:7B:3B:65:BE:81:0F:C6:DC:2F:B6:69:D1
            X509v3 Authority Key Identifier: 
                keyid:A4:31:5A:21:43:84:07:E1:7B:3B:65:BE:81:0F:C6:DC:2F:B6:69:D1

            X509v3 Basic Constraints: 
                CA:TRUE
    Signature Algorithm: sha256WithRSAEncryption
         c7:9e:e3:67:8f:18:6c:91:76:4c:03:b2:10:4a:9f:07:4f:30:
         28:b7:2c:06:56:eb:73:84:cc:73:aa:b1:14:6d:53:00:79:0a:
         94:7a:1f:45:40:12:41:af:da:1a:27:84:83:23:18:22:e0:bc:
         5f:b9:00:30:24:70:9a:7c:f2:80:e5:f5:d9:39:ad:d0:b2:a6:
         4e:e3:da:0c:4c:0f:e4:5e:fc:21:d0:b8:a1:61:01:e6:8c:86:
         79:47:a5:f6:5e:1d:bf:b1:16:f3:92:2a:59:df:54:ef:c3:b3:
         24:72:90:41:9a:02:c6:a2:fb:64:4c:75:f7:6e:f1:4d:1a:d0:
         32:8d:02:9b:9a:ea:1b:6b:bd:e2:b6:37:d5:9c:18:65:c2:06:
         0d:58:44:4d:82:24:8a:39:5f:68:80:23:38:0a:22:c5:eb:2d:
         57:78:0e:a3:f8:bb:56:eb:31:b1:d9:91:b6:35:de:72:e1:7a:
         e3:07:6b:e9:29:35:a4:da:ba:ee:f5:a8:0b:29:3b:d4:31:91:
         96:75:41:10:b2:a8:1d:d3:05:1d:4c:44:b6:ff:ce:3a:0c:d6:
         0f:80:c8:89:9c:9a:ff:e5:fe:43:fe:3c:c8:d6:a0:ed:8e:46:
         26:52:a2:3c:a9:0b:00:ef:03:b0:dc:32:bc:75:b3:cb:52:33:
         73:58:ec:f7
-----BEGIN CERTIFICATE-----
MIIDtTCCAp2gAwIBAgIJAJNH9XSc/lvdMA0GCSqGSIb3DQEBCwUAMHExCzAJBgNV
BAYTAkNIMRMwEQYDVQQIDApTb21lLVN0YXRlMSEwHwYDVQQKDBhJbnRlcm5ldCBX
aWRnaXRzIFB0eSBMdGQxKjAoBgNVBAMMIUluZlRlYyBUZXN0IENlcnRpZmljYXRl
IEF1dGhvcml0eTAeFw0xNDEyMjkxOTEwMTVaFw0xNzEyMjgxOTEwMTVaMHExCzAJ
BgNVBAYTAkNIMRMwEQYDVQQIDApTb21lLVN0YXRlMSEwHwYDVQQKDBhJbnRlcm5l
dCBXaWRnaXRzIFB0eSBMdGQxKjAoBgNVBAMMIUluZlRlYyBUZXN0IENlcnRpZmlj
YXRlIEF1dGhvcml0eTCCASIwDQYJKoZIhvcNAQEBBQADggEPADCCAQoCggEBAOfX
eC8eJkbisVPALgIezI7jXLRPFfCPj6exj6CHPlNILgiPDNwVSFgUPwTjnTyqFAGP
z9patfKhTwXqxWm/31W2cSh7aRGJqdfXWJwzTPiANBEQPYOSk3m6W/oX5rY+PlU9
dUvMdc2EPIQRfxxQvr26l4/FjZn+xk7nybzq53TnQPWVdlJ7sJAqf8w8dDOUi6iJ
8793wOEMv1j4rr4T7RRD5/cc9enU7HXuLsb3dDqWmfBpk6cV8LzRFaQGWX5L84dv
a/U5Woqn9Lqumgpx+JikicWcF/WM6k2fzkHEmeU7S9ksmmz0Xla4qEnBzooD6tHC
s+iPZFGk/aedlAVpytcCAwEAAaNQME4wHQYDVR0OBBYEFKQxWiFDhAfheztlvoEP
xtwvtmnRMB8GA1UdIwQYMBaAFKQxWiFDhAfheztlvoEPxtwvtmnRMAwGA1UdEwQF
MAMBAf8wDQYJKoZIhvcNAQELBQADggEBAMee42ePGGyRdkwDshBKnwdPMCi3LAZW
63OEzHOqsRRtUwB5CpR6H0VAEkGv2honhIMjGCLgvF+5ADAkcJp88oDl9dk5rdCy
pk7j2gxMD+Re/CHQuKFhAeaMhnlHpfZeHb+xFvOSKlnfVO/DsyRykEGaAsai+2RM
dfdu8U0a0DKNApua6htrveK2N9WcGGXCBg1YRE2CJIo5X2iAIzgKIsXrLVd4DqP4
u1brMbHZkbY13nLheuMHa+kpNaTauu71qAspO9QxkZZ1QRCyqB3TBR1MRLb/zjoM
1g+AyImcmv/l/kP+PMjWoO2ORiZSojypCwDvA7DcMrx1s8tSM3NY7Pc=
-----END CERTIFICATE-----
