Certificate:
    Data:
        Version: 3 (0x2)
        Serial Number: 1 (0x1)
    Signature Algorithm: sha256WithRSAEncryption
        Issuer: C=CH, ST=Bern, O=InfTec GmbH, CN=InfTec Local Test Certificate Authority
        Validity
            Not Before: Jan  2 23:24:22 2015 GMT
            Not After : Jan  2 23:24:22 2016 GMT
        Subject: C=CH, ST=Bern, O=InfTec GmbH, CN=puppet.example.com
        Subject Public Key Info:
            Public Key Algorithm: rsaEncryption
                Public-Key: (2048 bit)
                Modulus:
                    00:a4:d8:3d:06:2c:e8:dc:97:0a:b5:bf:a4:1d:3c:
                    d9:2b:7c:1e:e6:ab:2f:d2:0c:82:15:0a:e3:07:21:
                    e3:d4:76:ed:f6:fb:76:1d:a0:31:87:50:dd:a2:ba:
                    a7:30:84:fd:e7:31:c0:70:93:b2:c0:39:c7:2b:25:
                    24:58:29:5f:e0:78:e7:ad:fd:5b:f3:b3:d2:a8:08:
                    04:29:95:5a:c8:6e:c1:f7:af:77:68:7c:54:88:9d:
                    79:86:9a:df:b9:e9:78:48:c3:dc:84:4c:c1:47:73:
                    88:96:eb:61:18:df:51:26:1e:fa:91:db:81:a4:22:
                    bb:ab:be:1b:89:04:d5:4d:35:a1:9b:21:30:7f:32:
                    94:dc:24:85:5d:d1:33:a0:13:70:0b:83:b1:73:92:
                    43:80:b2:8c:19:ba:15:af:f5:3d:24:8c:02:b5:90:
                    f3:2e:e8:ee:d3:f8:2a:f7:77:12:a5:f9:1b:71:22:
                    10:1e:39:27:1f:13:20:b3:c9:5b:7a:3e:38:61:f6:
                    16:72:10:8b:41:02:32:de:14:87:aa:89:5a:86:1e:
                    b6:fa:bd:e1:40:9c:c8:29:58:3a:e0:ca:99:a1:0a:
                    7b:a0:20:34:58:4f:6b:f8:9b:00:38:10:89:66:6a:
                    4b:24:9c:a6:c2:1c:20:d3:de:07:21:f1:46:b5:f0:
                    aa:4d
                Exponent: 65537 (0x10001)
        X509v3 extensions:
            X509v3 Basic Constraints: 
                CA:FALSE
            Netscape Comment: 
                OpenSSL Generated Certificate
            X509v3 Subject Key Identifier: 
                5A:47:0C:DB:66:69:77:71:08:14:23:4B:40:E5:A8:79:7C:7D:E1:F9
            X509v3 Authority Key Identifier: 
                keyid:30:DA:F3:C9:D3:25:98:F3:A4:D8:38:AB:85:5C:5F:0B:68:DC:C1:7C

    Signature Algorithm: sha256WithRSAEncryption
         24:e6:d4:a2:30:6b:28:c5:88:e2:98:a8:c7:b4:51:a0:22:7a:
         d3:c8:17:d9:81:ab:62:3e:97:5a:af:28:ec:25:eb:11:21:4f:
         31:74:1a:3e:de:d5:f0:8c:45:19:99:18:da:bd:ba:41:33:bb:
         1d:17:20:bc:b0:58:78:3a:8e:b5:e6:48:d1:f2:7d:81:c2:db:
         7c:72:4d:03:71:a4:79:fc:c3:c1:29:f7:3c:2d:5b:dc:fc:6b:
         bc:49:22:c5:e3:75:20:9f:51:96:68:e2:49:2e:d6:ae:19:21:
         2a:42:e3:54:75:4d:05:89:ac:b8:dc:e1:e7:2f:49:f3:ae:54:
         d9:21:50:58:2b:b3:a5:47:4a:8b:e6:8c:01:e0:93:14:c7:07:
         ce:3b:06:f6:71:02:a2:cd:10:25:92:6d:5f:a8:2c:0a:5c:40:
         bd:c3:e5:93:f9:6e:a0:bf:c0:c9:e3:f9:f1:d7:9b:fd:55:f9:
         3c:25:bf:d4:b6:7f:dd:7c:48:ae:93:7a:07:44:ef:8b:49:08:
         d4:1f:a7:30:32:fb:8d:e5:35:7f:0a:6b:f6:de:a8:ae:69:e4:
         d1:fe:3e:35:d9:e4:c3:fc:ea:34:ff:26:d3:1e:b7:9a:56:83:
         36:a2:f5:7b:18:d0:c8:0b:f3:c8:41:59:e4:b9:be:13:23:02:
         d5:ad:5c:5b
-----BEGIN CERTIFICATE-----
MIIDqTCCApGgAwIBAgIBATANBgkqhkiG9w0BAQsFADBkMQswCQYDVQQGEwJDSDEN
MAsGA1UECAwEQmVybjEUMBIGA1UECgwLSW5mVGVjIEdtYkgxMDAuBgNVBAMMJ0lu
ZlRlYyBMb2NhbCBUZXN0IENlcnRpZmljYXRlIEF1dGhvcml0eTAeFw0xNTAxMDIy
MzI0MjJaFw0xNjAxMDIyMzI0MjJaME8xCzAJBgNVBAYTAkNIMQ0wCwYDVQQIDARC
ZXJuMRQwEgYDVQQKDAtJbmZUZWMgR21iSDEbMBkGA1UEAwwScHVwcGV0LmV4YW1w
bGUuY29tMIIBIjANBgkqhkiG9w0BAQEFAAOCAQ8AMIIBCgKCAQEApNg9Bizo3JcK
tb+kHTzZK3we5qsv0gyCFQrjByHj1Hbt9vt2HaAxh1DdorqnMIT95zHAcJOywDnH
KyUkWClf4Hjnrf1b87PSqAgEKZVayG7B9693aHxUiJ15hprfuel4SMPchEzBR3OI
luthGN9RJh76kduBpCK7q74biQTVTTWhmyEwfzKU3CSFXdEzoBNwC4Oxc5JDgLKM
GboVr/U9JIwCtZDzLuju0/gq93cSpfkbcSIQHjknHxMgs8lbej44YfYWchCLQQIy
3hSHqolahh62+r3hQJzIKVg64MqZoQp7oCA0WE9r+JsAOBCJZmpLJJymwhwg094H
IfFGtfCqTQIDAQABo3sweTAJBgNVHRMEAjAAMCwGCWCGSAGG+EIBDQQfFh1PcGVu
U1NMIEdlbmVyYXRlZCBDZXJ0aWZpY2F0ZTAdBgNVHQ4EFgQUWkcM22Zpd3EIFCNL
QOWoeXx94fkwHwYDVR0jBBgwFoAUMNrzydMlmPOk2DirhVxfC2jcwXwwDQYJKoZI
hvcNAQELBQADggEBACTm1KIwayjFiOKYqMe0UaAietPIF9mBq2I+l1qvKOwl6xEh
TzF0Gj7e1fCMRRmZGNq9ukEzux0XILywWHg6jrXmSNHyfYHC23xyTQNxpHn8w8Ep
9zwtW9z8a7xJIsXjdSCfUZZo4kku1q4ZISpC41R1TQWJrLjc4ecvSfOuVNkhUFgr
s6VHSovmjAHgkxTHB847BvZxAqLNECWSbV+oLApcQL3D5ZP5bqC/wMnj+fHXm/1V
+Twlv9S2f918SK6TegdE74tJCNQfpzAy+43lNX8Ka/beqK5p5NH+PjXZ5MP86jT/
JtMet5pWgzai9XsY0MgL88hBWeS5vhMjAtWtXFs=
-----END CERTIFICATE-----
