Certificate:
    Data:
        Version: 3 (0x2)
        Serial Number: 3 (0x3)
    Signature Algorithm: sha256WithRSAEncryption
        Issuer: C=CH, ST=Bern, O=InfTec GmbH, CN=InfTec Local Test Certificate Authority
        Validity
            Not Before: Jan  3 00:00:16 2015 GMT
            Not After : Jan  3 00:00:16 2016 GMT
        Subject: C=CH, ST=Bern, O=InfTec GmbH, CN=172.16.32.10
        Subject Public Key Info:
            Public Key Algorithm: rsaEncryption
                Public-Key: (2048 bit)
                Modulus:
                    00:ac:dc:41:4f:65:a6:48:48:67:4a:7b:b3:b5:27:
                    e4:34:0d:4d:98:3f:25:52:0b:92:98:2e:81:d2:82:
                    9f:44:47:8a:f4:9d:83:b1:72:86:a7:9b:85:89:a7:
                    95:2d:18:09:b7:c6:2d:f0:e5:89:34:8a:22:53:8e:
                    b6:1e:3d:bf:81:61:4f:37:b2:5e:4c:83:01:30:81:
                    a3:46:d1:64:ae:64:82:1f:ef:53:c4:11:dd:a5:10:
                    13:71:a7:47:40:56:c7:c4:a1:5a:0d:42:f9:5e:e7:
                    60:e1:6c:eb:32:ce:c8:85:01:5c:5e:ec:66:02:e9:
                    25:c8:b6:de:d0:e2:07:9b:ee:3e:21:4d:8c:e5:fb:
                    40:23:93:bc:b0:2d:65:94:3b:25:30:d8:67:96:3f:
                    24:b4:a5:f6:fd:58:35:5f:df:97:07:ef:bd:e3:34:
                    11:a1:6c:84:79:e6:06:97:4d:0e:cf:ce:3a:d8:58:
                    6e:a9:c2:8a:a5:1c:17:c4:b1:2d:a9:9f:0b:49:40:
                    05:1f:47:02:1d:f6:23:a1:cc:d0:92:28:e6:f8:98:
                    da:e8:d4:47:69:49:fc:12:a8:ba:ff:8a:07:97:4d:
                    b8:ac:ae:70:3d:48:48:a3:05:d0:72:cf:e2:48:79:
                    19:9a:b7:38:7e:0a:fe:bb:35:fc:80:6e:83:ce:93:
                    a0:eb
                Exponent: 65537 (0x10001)
        X509v3 extensions:
            X509v3 Basic Constraints: 
                CA:FALSE
            Netscape Comment: 
                OpenSSL Generated Certificate
            X509v3 Subject Key Identifier: 
                6B:FD:D2:BC:AF:D4:43:50:47:FB:6C:9E:EA:F6:71:53:AE:A4:5E:51
            X509v3 Authority Key Identifier: 
                keyid:30:DA:F3:C9:D3:25:98:F3:A4:D8:38:AB:85:5C:5F:0B:68:DC:C1:7C

    Signature Algorithm: sha256WithRSAEncryption
         73:00:8e:18:0c:d9:23:72:68:4c:90:9f:69:9e:c3:e9:68:80:
         4b:61:3a:e1:99:20:c3:67:5a:b0:1f:3a:d6:0e:af:68:48:da:
         4a:61:ac:4f:b2:0a:73:eb:18:11:c0:f1:a9:cd:e7:84:81:09:
         26:6f:a4:2d:5b:bd:84:f0:de:44:e4:dd:99:91:ee:26:68:e4:
         21:17:ca:76:36:2f:32:ce:66:2c:13:2e:67:6f:18:43:49:c0:
         81:97:a2:04:80:cd:5b:6e:1c:56:f2:ef:16:c8:f1:a0:e1:cc:
         50:ff:74:1c:f7:c7:d6:ae:2c:61:eb:d1:36:64:15:37:c4:7d:
         b5:71:c3:12:30:ad:83:f0:07:f8:b6:b4:28:e5:e7:b1:10:15:
         d2:2a:63:48:ef:09:41:f8:30:ce:b5:b4:e4:52:ce:b4:b5:a5:
         69:19:f4:86:48:f0:7b:91:31:74:af:bf:2a:f3:66:41:6e:63:
         aa:d1:c5:7e:29:d8:03:41:fe:d8:41:ab:f2:f9:30:65:1c:a6:
         e2:31:24:08:4a:16:d1:69:09:39:3b:77:2f:55:38:c9:5d:eb:
         f7:08:82:07:79:1f:8c:a5:66:5f:e8:de:75:98:32:2f:43:0c:
         d7:3b:0a:ac:79:af:fd:dd:e7:a3:2c:29:21:9d:d7:bc:d7:52:
         5a:a0:54:ba
-----BEGIN CERTIFICATE-----
MIIDozCCAougAwIBAgIBAzANBgkqhkiG9w0BAQsFADBkMQswCQYDVQQGEwJDSDEN
MAsGA1UECAwEQmVybjEUMBIGA1UECgwLSW5mVGVjIEdtYkgxMDAuBgNVBAMMJ0lu
ZlRlYyBMb2NhbCBUZXN0IENlcnRpZmljYXRlIEF1dGhvcml0eTAeFw0xNTAxMDMw
MDAwMTZaFw0xNjAxMDMwMDAwMTZaMEkxCzAJBgNVBAYTAkNIMQ0wCwYDVQQIDARC
ZXJuMRQwEgYDVQQKDAtJbmZUZWMgR21iSDEVMBMGA1UEAwwMMTcyLjE2LjMyLjEw
MIIBIjANBgkqhkiG9w0BAQEFAAOCAQ8AMIIBCgKCAQEArNxBT2WmSEhnSnuztSfk
NA1NmD8lUguSmC6B0oKfREeK9J2DsXKGp5uFiaeVLRgJt8Yt8OWJNIoiU462Hj2/
gWFPN7JeTIMBMIGjRtFkrmSCH+9TxBHdpRATcadHQFbHxKFaDUL5Xudg4WzrMs7I
hQFcXuxmAuklyLbe0OIHm+4+IU2M5ftAI5O8sC1llDslMNhnlj8ktKX2/Vg1X9+X
B++94zQRoWyEeeYGl00Oz8462FhuqcKKpRwXxLEtqZ8LSUAFH0cCHfYjoczQkijm
+Jja6NRHaUn8Eqi6/4oHl024rK5wPUhIowXQcs/iSHkZmrc4fgr+uzX8gG6DzpOg
6wIDAQABo3sweTAJBgNVHRMEAjAAMCwGCWCGSAGG+EIBDQQfFh1PcGVuU1NMIEdl
bmVyYXRlZCBDZXJ0aWZpY2F0ZTAdBgNVHQ4EFgQUa/3SvK/UQ1BH+2ye6vZxU66k
XlEwHwYDVR0jBBgwFoAUMNrzydMlmPOk2DirhVxfC2jcwXwwDQYJKoZIhvcNAQEL
BQADggEBAHMAjhgM2SNyaEyQn2mew+logEthOuGZIMNnWrAfOtYOr2hI2kphrE+y
CnPrGBHA8anN54SBCSZvpC1bvYTw3kTk3ZmR7iZo5CEXynY2LzLOZiwTLmdvGENJ
wIGXogSAzVtuHFby7xbI8aDhzFD/dBz3x9auLGHr0TZkFTfEfbVxwxIwrYPwB/i2
tCjl57EQFdIqY0jvCUH4MM61tORSzrS1pWkZ9IZI8HuRMXSvvyrzZkFuY6rRxX4p
2ANB/thBq/L5MGUcpuIxJAhKFtFpCTk7dy9VOMld6/cIggd5H4ylZl/o3nWYMi9D
DNc7Cqx5r/3d56MsKSGd17zXUlqgVLo=
-----END CERTIFICATE-----
