Certificate:
    Data:
        Version: 3 (0x2)
        Serial Number: 2 (0x2)
    Signature Algorithm: sha256WithRSAEncryption
        Issuer: C=CH, ST=Bern, O=InfTec GmbH, CN=InfTec Local Test Certificate Authority
        Validity
            Not Before: Jan  2 23:42:55 2015 GMT
            Not After : Jan  2 23:42:55 2016 GMT
        Subject: C=CH, ST=Bern, O=InfTec GmbH, CN=InfTec Test
        Subject Public Key Info:
            Public Key Algorithm: rsaEncryption
                Public-Key: (2048 bit)
                Modulus:
                    00:b7:b2:ec:75:6d:a4:84:a5:9f:c4:1f:07:f6:b5:
                    14:2b:da:ff:71:d5:76:e7:21:5a:83:71:54:2e:ad:
                    91:ae:9a:f1:13:89:d3:70:f1:c1:2b:6f:27:bc:14:
                    cf:5b:35:34:52:36:04:a4:bf:3c:63:20:36:c5:27:
                    15:0a:79:0b:9b:1b:50:7a:6a:93:97:d1:43:56:fa:
                    2a:78:29:82:44:3f:d6:d3:fe:94:db:77:79:95:b9:
                    9c:f2:32:4c:dd:8f:08:82:ad:5e:86:45:30:70:bf:
                    7a:67:55:97:96:c0:1b:51:fa:f2:ba:75:c7:8d:de:
                    fd:69:b5:8c:fb:35:2f:3c:02:02:39:65:f4:f3:78:
                    cc:d1:a9:20:f5:94:23:dd:91:fe:5e:28:2c:f7:9c:
                    7c:5c:87:c8:00:d2:96:0a:8c:02:72:3c:49:e6:c5:
                    c9:35:25:37:ca:d4:ff:32:56:e8:0c:0c:3b:cc:a8:
                    52:04:53:2d:b0:1a:51:c3:b8:82:1e:66:7f:00:f8:
                    ef:22:55:db:1b:52:0e:4b:89:00:5e:0c:28:b9:84:
                    40:a5:4b:3e:e6:27:dd:d2:82:47:c1:f0:b3:89:b7:
                    cd:6b:e8:8f:a8:c8:d5:0d:f4:fd:f6:2a:e8:58:0a:
                    ba:91:16:02:ec:16:25:c2:cc:0a:13:df:2f:f5:cf:
                    a6:05
                Exponent: 65537 (0x10001)
        X509v3 extensions:
            X509v3 Basic Constraints: 
                CA:FALSE
            Netscape Comment: 
                OpenSSL Generated Certificate
            X509v3 Subject Key Identifier: 
                74:AA:6E:E1:8F:D8:80:81:1F:A6:65:CD:FF:00:C1:B8:63:2B:20:3F
            X509v3 Authority Key Identifier: 
                keyid:30:DA:F3:C9:D3:25:98:F3:A4:D8:38:AB:85:5C:5F:0B:68:DC:C1:7C

    Signature Algorithm: sha256WithRSAEncryption
         96:d5:45:91:2a:96:42:b4:36:0d:fa:07:7b:96:81:6d:11:c3:
         62:62:7b:8f:ac:0c:13:1b:8e:c2:b8:ef:d9:63:60:6b:49:1f:
         f2:5c:f2:fe:2b:b7:e5:19:ad:de:75:2b:ca:bf:9d:b4:c8:53:
         ab:f5:2d:02:bd:b9:6b:ea:43:fa:cb:dc:27:c9:2b:6c:42:68:
         3a:be:a6:30:bd:10:52:72:60:69:a8:85:86:65:cf:8f:eb:c3:
         6c:c7:c3:1f:8b:89:2c:86:e4:37:d5:a4:0a:41:66:11:72:bd:
         0c:b4:3c:52:31:61:16:25:79:b4:d0:1d:7f:d2:13:7e:39:d9:
         d3:ce:51:aa:6a:bf:94:5c:8a:03:3f:7c:5e:1b:f8:36:4a:9b:
         5a:70:9f:77:f7:fd:8e:1c:65:af:8c:69:89:a9:8a:1d:66:b3:
         9e:07:0f:da:94:78:88:6f:c5:0d:c2:28:b3:4a:d8:dd:72:54:
         c4:d3:7f:bb:3b:54:bc:af:26:c7:10:a2:c0:c6:42:ba:12:60:
         65:f1:cb:8a:61:77:9a:24:d8:f0:6c:83:64:6e:75:55:6b:db:
         cc:e5:3f:c2:ec:04:60:6c:ff:b5:31:b6:4d:c1:f7:fb:5d:a0:
         83:f8:45:29:2e:f3:27:86:6d:b1:13:4b:55:9d:ef:3e:0a:5d:
         4e:68:d0:b0
-----BEGIN CERTIFICATE-----
MIIDojCCAoqgAwIBAgIBAjANBgkqhkiG9w0BAQsFADBkMQswCQYDVQQGEwJDSDEN
MAsGA1UECAwEQmVybjEUMBIGA1UECgwLSW5mVGVjIEdtYkgxMDAuBgNVBAMMJ0lu
ZlRlYyBMb2NhbCBUZXN0IENlcnRpZmljYXRlIEF1dGhvcml0eTAeFw0xNTAxMDIy
MzQyNTVaFw0xNjAxMDIyMzQyNTVaMEgxCzAJBgNVBAYTAkNIMQ0wCwYDVQQIDARC
ZXJuMRQwEgYDVQQKDAtJbmZUZWMgR21iSDEUMBIGA1UEAwwLSW5mVGVjIFRlc3Qw
ggEiMA0GCSqGSIb3DQEBAQUAA4IBDwAwggEKAoIBAQC3sux1baSEpZ/EHwf2tRQr
2v9x1XbnIVqDcVQurZGumvETidNw8cErbye8FM9bNTRSNgSkvzxjIDbFJxUKeQub
G1B6apOX0UNW+ip4KYJEP9bT/pTbd3mVuZzyMkzdjwiCrV6GRTBwv3pnVZeWwBtR
+vK6dceN3v1ptYz7NS88AgI5ZfTzeMzRqSD1lCPdkf5eKCz3nHxch8gA0pYKjAJy
PEnmxck1JTfK1P8yVugMDDvMqFIEUy2wGlHDuIIeZn8A+O8iVdsbUg5LiQBeDCi5
hEClSz7mJ93SgkfB8LOJt81r6I+oyNUN9P32KuhYCrqRFgLsFiXCzAoT3y/1z6YF
AgMBAAGjezB5MAkGA1UdEwQCMAAwLAYJYIZIAYb4QgENBB8WHU9wZW5TU0wgR2Vu
ZXJhdGVkIENlcnRpZmljYXRlMB0GA1UdDgQWBBR0qm7hj9iAgR+mZc3/AMG4Yysg
PzAfBgNVHSMEGDAWgBQw2vPJ0yWY86TYOKuFXF8LaNzBfDANBgkqhkiG9w0BAQsF
AAOCAQEAltVFkSqWQrQ2DfoHe5aBbRHDYmJ7j6wMExuOwrjv2WNga0kf8lzy/iu3
5Rmt3nUryr+dtMhTq/UtAr25a+pD+svcJ8krbEJoOr6mML0QUnJgaaiFhmXPj+vD
bMfDH4uJLIbkN9WkCkFmEXK9DLQ8UjFhFiV5tNAdf9ITfjnZ085Rqmq/lFyKAz98
Xhv4NkqbWnCfd/f9jhxlr4xpiamKHWazngcP2pR4iG/FDcIos0rY3XJUxNN/uztU
vK8mxxCiwMZCuhJgZfHLimF3miTY8GyDZG51VWvbzOU/wuwEYGz/tTG2TcH3+12g
g/hFKS7zJ4ZtsRNLVZ3vPgpdTmjQsA==
-----END CERTIFICATE-----
